; Function Attrs: mustprogress uwtable
define noundef zeroext i1 @_ZNK9grpc_core11ChannelArgs8ContainsESt17basic_string_viewIcSt11char_traitsIcEE(ptr noundef nonnull align 8 dereferenceable(8) %0, i64 %1, ptr %2) local_unnamed_addr #9 align 2 {
  %4 = alloca %"class.std::basic_string_view", align 8
  call void @llvm.lifetime.start.p0(i64 16, ptr nonnull %4)
  store i64 %1, ptr %4, align 8
  %5 = getelementptr inbounds nuw i8, ptr %4, i64 8
  store ptr %2, ptr %5, align 8
  %6 = call noundef ptr @_ZNK9grpc_core3AVLINS_21RefCountedStringValueENS_11ChannelArgs5ValueEE6LookupISt17basic_string_viewIcSt11char_traitsIcEEEEPKS3_RKT_(ptr noundef nonnull align 8 dereferenceable(8) %0, ptr noundef nonnull align 8 dereferenceable(16) %4)
  call void @llvm.lifetime.end.p0(i64 16, ptr nonnull %4)
  %7 = icmp ne ptr %6, null
  ret i1 %7
}